; Function Attrs: nofree noinline norecurse nosync nounwind memory(argmem: readwrite) uwtable
define internal fastcc void @avg_8tap_1d_h_c(ptr noundef captures(none) %0, i64 noundef %1, ptr noundef readonly captures(none) %2, i64 noundef %3, i32 noundef range(i32 4, 65) %4, i32 noundef %5, ptr noundef readonly captures(none) %6) unnamed_addr #8 {
  %8 = lshr i64 %1, 1
  %9 = lshr i64 %3, 1
  %10 = getelementptr inbounds nuw i8, ptr %6, i64 2
  %11 = getelementptr inbounds nuw i8, ptr %6, i64 4
  %12 = getelementptr inbounds nuw i8, ptr %6, i64 6
  %13 = getelementptr inbounds nuw i8, ptr %6, i64 8
  %14 = getelementptr inbounds nuw i8, ptr %6, i64 10
  %15 = getelementptr inbounds nuw i8, ptr %6, i64 12
  %16 = getelementptr inbounds nuw i8, ptr %6, i64 14
  %wide.trip.count = zext nneg i32 %4 to i64
  br label %17

17:                                               ; preds = %88, %7
  %.084.i = phi i32 [ %5, %7 ], [ %91, %88 ]
  %.083.i = phi ptr [ %0, %7 ], [ %89, %88 ]
  %.082.i = phi ptr [ %2, %7 ], [ %90, %88 ]
  %18 = getelementptr i8, ptr %.082.i, i64 -6
  %invariant.gep = getelementptr i8, ptr %.082.i, i64 -4
  %invariant.gep6 = getelementptr i8, ptr %.082.i, i64 -2
  %19 = getelementptr inbounds nuw i8, ptr %.082.i, i64 2
  %20 = getelementptr inbounds nuw i8, ptr %.082.i, i64 4
  %21 = getelementptr inbounds nuw i8, ptr %.082.i, i64 6
  %22 = getelementptr inbounds nuw i8, ptr %.082.i, i64 8
  br label %23

23:                                               ; preds = %17, %23
  %indvars.iv = phi i64 [ 0, %17 ], [ %indvars.iv.next, %23 ]
  %24 = getelementptr inbounds nuw i16, ptr %.083.i, i64 %indvars.iv
  %25 = load i16, ptr %24, align 2, !tbaa !8
  %26 = zext i16 %25 to i32
  %27 = load i16, ptr %6, align 2, !tbaa !8
  %28 = sext i16 %27 to i32
  %29 = getelementptr i16, ptr %18, i64 %indvars.iv
  %30 = load i16, ptr %29, align 2, !tbaa !8
  %31 = zext i16 %30 to i32
  %32 = mul nsw i32 %31, %28
  %33 = load i16, ptr %10, align 2, !tbaa !8
  %34 = sext i16 %33 to i32
  %gep = getelementptr i16, ptr %invariant.gep, i64 %indvars.iv
  %35 = load i16, ptr %gep, align 2, !tbaa !8
  %36 = zext i16 %35 to i32
  %37 = mul nsw i32 %36, %34
  %38 = load i16, ptr %11, align 2, !tbaa !8
  %39 = sext i16 %38 to i32
  %gep7 = getelementptr i16, ptr %invariant.gep6, i64 %indvars.iv
  %40 = load i16, ptr %gep7, align 2, !tbaa !8
  %41 = zext i16 %40 to i32
  %42 = mul nsw i32 %41, %39
  %43 = load i16, ptr %12, align 2, !tbaa !8
  %44 = sext i16 %43 to i32
  %45 = getelementptr inbounds nuw i16, ptr %.082.i, i64 %indvars.iv
  %46 = load i16, ptr %45, align 2, !tbaa !8
  %47 = zext i16 %46 to i32
  %48 = mul nsw i32 %47, %44
  %49 = load i16, ptr %13, align 2, !tbaa !8
  %50 = sext i16 %49 to i32
  %51 = getelementptr inbounds nuw i16, ptr %19, i64 %indvars.iv
  %52 = load i16, ptr %51, align 2, !tbaa !8
  %53 = zext i16 %52 to i32
  %54 = mul nsw i32 %53, %50
  %55 = load i16, ptr %14, align 2, !tbaa !8
  %56 = sext i16 %55 to i32
  %57 = getelementptr inbounds nuw i16, ptr %20, i64 %indvars.iv
  %58 = load i16, ptr %57, align 2, !tbaa !8
  %59 = zext i16 %58 to i32
  %60 = mul nsw i32 %59, %56
  %61 = load i16, ptr %15, align 2, !tbaa !8
  %62 = sext i16 %61 to i32
  %63 = getelementptr inbounds nuw i16, ptr %21, i64 %indvars.iv
  %64 = load i16, ptr %63, align 2, !tbaa !8
  %65 = zext i16 %64 to i32
  %66 = mul nsw i32 %65, %62
  %67 = load i16, ptr %16, align 2, !tbaa !8
  %68 = sext i16 %67 to i32
  %69 = getelementptr inbounds nuw i16, ptr %22, i64 %indvars.iv
  %70 = load i16, ptr %69, align 2, !tbaa !8
  %71 = zext i16 %70 to i32
  %72 = mul nsw i32 %71, %68
  %73 = add nsw i32 %32, 64
  %74 = add i32 %73, %37
  %75 = add i32 %74, %42
  %76 = add i32 %75, %48
  %77 = add i32 %76, %54
  %78 = add i32 %77, %60
  %79 = add i32 %78, %66
  %80 = add i32 %79, %72
  %81 = ashr i32 %80, 7
  %82 = tail call i32 @llvm.smax.i32(i32 %81, i32 0)
  %83 = tail call i32 @llvm.umin.i32(i32 %82, i32 4095)
  %84 = add nuw nsw i32 %26, 1
  %85 = add nuw nsw i32 %84, %83
  %86 = lshr i32 %85, 1
  %87 = trunc nuw i32 %86 to i16
  store i16 %87, ptr %24, align 2, !tbaa !8
  %indvars.iv.next = add nuw nsw i64 %indvars.iv, 1
  %exitcond.not = icmp eq i64 %indvars.iv.next, %wide.trip.count
  br i1 %exitcond.not, label %88, label %23, !llvm.loop !82

88:                                               ; preds = %23
  %89 = getelementptr inbounds nuw i16, ptr %.083.i, i64 %8
  %90 = getelementptr inbounds nuw i16, ptr %.082.i, i64 %9
  %91 = add nsw i32 %.084.i, -1
  %.not.i = icmp eq i32 %91, 0
  br i1 %.not.i, label %do_8tap_1d_c.exit, label %17, !llvm.loop !83

do_8tap_1d_c.exit:                                ; preds = %88
  ret void
}